target datalayout = "e-m:e-p270:32:32-p271:32:32-p272:64:64-i64:64-i128:128-f80:128-n8:16:32:64-S128"
target triple = "x86_64-pc-linux-gnu"

%class.AtomIterator = type { ptr, i64, ptr, i32, i32, i32, i32 }
%struct.gmx_mtop_t = type { ptr, %struct.gmx_ffparams_t, %"class.std::vector.10", %"class.std::vector.15", i8, %"class.std::unique_ptr", i32, %struct.SimulationGroups, %struct.t_symtab, i8, %"class.std::vector", %"class.std::vector.33", i32, i32 }
%struct.gmx_ffparams_t = type { i32, %"class.std::vector", %"class.std::vector.0", double, float, %struct.gmx_cmap_t }
%"class.std::vector.0" = type { %"struct.std::_Vector_base.1" }
%"struct.std::_Vector_base.1" = type { %"struct.std::_Vector_base<t_iparams, std::allocator<t_iparams>>::_Vector_impl" }
%"struct.std::_Vector_base<t_iparams, std::allocator<t_iparams>>::_Vector_impl" = type { %"struct.std::_Vector_base<t_iparams, std::allocator<t_iparams>>::_Vector_impl_data" }
%"struct.std::_Vector_base<t_iparams, std::allocator<t_iparams>>::_Vector_impl_data" = type { ptr, ptr, ptr }
%struct.gmx_cmap_t = type { i32, %"class.std::vector.5" }
%"class.std::vector.5" = type { %"struct.std::_Vector_base.6" }
%"struct.std::_Vector_base.6" = type { %"struct.std::_Vector_base<gmx_cmapdata_t, std::allocator<gmx_cmapdata_t>>::_Vector_impl" }
%"struct.std::_Vector_base<gmx_cmapdata_t, std::allocator<gmx_cmapdata_t>>::_Vector_impl" = type { %"struct.std::_Vector_base<gmx_cmapdata_t, std::allocator<gmx_cmapdata_t>>::_Vector_impl_data" }
%"struct.std::_Vector_base<gmx_cmapdata_t, std::allocator<gmx_cmapdata_t>>::_Vector_impl_data" = type { ptr, ptr, ptr }
%"class.std::vector.10" = type { %"struct.std::_Vector_base.11" }
%"struct.std::_Vector_base.11" = type { %"struct.std::_Vector_base<gmx_moltype_t, std::allocator<gmx_moltype_t>>::_Vector_impl" }
%"struct.std::_Vector_base<gmx_moltype_t, std::allocator<gmx_moltype_t>>::_Vector_impl" = type { %"struct.std::_Vector_base<gmx_moltype_t, std::allocator<gmx_moltype_t>>::_Vector_impl_data" }
%"struct.std::_Vector_base<gmx_moltype_t, std::allocator<gmx_moltype_t>>::_Vector_impl_data" = type { ptr, ptr, ptr }
%"class.std::vector.15" = type { %"struct.std::_Vector_base.16" }
%"struct.std::_Vector_base.16" = type { %"struct.std::_Vector_base<gmx_molblock_t, std::allocator<gmx_molblock_t>>::_Vector_impl" }
%"struct.std::_Vector_base<gmx_molblock_t, std::allocator<gmx_molblock_t>>::_Vector_impl" = type { %"struct.std::_Vector_base<gmx_molblock_t, std::allocator<gmx_molblock_t>>::_Vector_impl_data" }
%"struct.std::_Vector_base<gmx_molblock_t, std::allocator<gmx_molblock_t>>::_Vector_impl_data" = type { ptr, ptr, ptr }
%"class.std::unique_ptr" = type { %"struct.std::__uniq_ptr_data" }
%"struct.std::__uniq_ptr_data" = type { %"class.std::__uniq_ptr_impl" }
%"class.std::__uniq_ptr_impl" = type { %"class.std::tuple" }
%"class.std::tuple" = type { %"struct.std::_Tuple_impl" }
%"struct.std::_Tuple_impl" = type { %"struct.std::_Head_base.21" }
%"struct.std::_Head_base.21" = type { ptr }
%struct.SimulationGroups = type { %"struct.gmx::EnumerationArray", %"class.std::vector.22", %"struct.gmx::EnumerationArray.27" }
%"struct.gmx::EnumerationArray" = type { [10 x %"class.std::vector"] }
%"class.std::vector.22" = type { %"struct.std::_Vector_base.23" }
%"struct.std::_Vector_base.23" = type { %"struct.std::_Vector_base<char **, std::allocator<char **>>::_Vector_impl" }
%"struct.std::_Vector_base<char **, std::allocator<char **>>::_Vector_impl" = type { %"struct.std::_Vector_base<char **, std::allocator<char **>>::_Vector_impl_data" }
%"struct.std::_Vector_base<char **, std::allocator<char **>>::_Vector_impl_data" = type { ptr, ptr, ptr }
%"struct.gmx::EnumerationArray.27" = type { [10 x %"class.std::vector.28"] }
%"class.std::vector.28" = type { %"struct.std::_Vector_base.29" }
%"struct.std::_Vector_base.29" = type { %"struct.std::_Vector_base<unsigned char, std::allocator<unsigned char>>::_Vector_impl" }
%"struct.std::_Vector_base<unsigned char, std::allocator<unsigned char>>::_Vector_impl" = type { %"struct.std::_Vector_base<unsigned char, std::allocator<unsigned char>>::_Vector_impl_data" }
%"struct.std::_Vector_base<unsigned char, std::allocator<unsigned char>>::_Vector_impl_data" = type { ptr, ptr, ptr }
%struct.t_symtab = type { i32, ptr }
%"class.std::vector" = type { %"struct.std::_Vector_base" }
%"struct.std::_Vector_base" = type { %"struct.std::_Vector_base<int, std::allocator<int>>::_Vector_impl" }
%"struct.std::_Vector_base<int, std::allocator<int>>::_Vector_impl" = type { %"struct.std::_Vector_base<int, std::allocator<int>>::_Vector_impl_data" }
%"struct.std::_Vector_base<int, std::allocator<int>>::_Vector_impl_data" = type { ptr, ptr, ptr }
%"class.std::vector.33" = type { %"struct.std::_Vector_base.34" }
%"struct.std::_Vector_base.34" = type { %"struct.std::_Vector_base<MoleculeBlockIndices, std::allocator<MoleculeBlockIndices>>::_Vector_impl" }
%"struct.std::_Vector_base<MoleculeBlockIndices, std::allocator<MoleculeBlockIndices>>::_Vector_impl" = type { %"struct.std::_Vector_base<MoleculeBlockIndices, std::allocator<MoleculeBlockIndices>>::_Vector_impl_data" }
%"struct.std::_Vector_base<MoleculeBlockIndices, std::allocator<MoleculeBlockIndices>>::_Vector_impl_data" = type { ptr, ptr, ptr }
%struct.gmx_molblock_t = type { i32, i32, %"class.std::vector.38", %"class.std::vector.38" }
%"class.std::vector.38" = type { %"struct.std::_Vector_base.39" }
%"struct.std::_Vector_base.39" = type { %"struct.std::_Vector_base<gmx::BasicVector<float>, std::allocator<gmx::BasicVector<float>>>::_Vector_impl" }
%"struct.std::_Vector_base<gmx::BasicVector<float>, std::allocator<gmx::BasicVector<float>>>::_Vector_impl" = type { %"struct.std::_Vector_base<gmx::BasicVector<float>, std::allocator<gmx::BasicVector<float>>>::_Vector_impl_data" }
%"struct.std::_Vector_base<gmx::BasicVector<float>, std::allocator<gmx::BasicVector<float>>>::_Vector_impl_data" = type { ptr, ptr, ptr }
%struct.gmx_moltype_t = type { ptr, %struct.t_atoms, %"struct.std::array", %"class.gmx::ListOfLists" }
%struct.t_atoms = type { i32, ptr, ptr, ptr, ptr, i32, ptr, ptr, i8, i8, i8, i8, i8 }
%"struct.std::array" = type { [94 x %struct.InteractionList] }
%struct.InteractionList = type { %"class.std::vector" }
%"class.gmx::ListOfLists" = type { %"class.std::vector", %"class.std::vector" }

; Function Attrs: mustprogress nounwind uwtable
define linkonce_odr noundef i32 @_ZNK10gmx_mtop_t25maxResNumberNotRenumberedEv(ptr noundef nonnull align 8 dereferenceable(768) %0) #1 comdat align 2 {
  %2 = alloca ptr, align 8
  store ptr %0, ptr %2, align 8
  %3 = load ptr, ptr %2, align 8
  %4 = getelementptr inbounds %struct.gmx_mtop_t, ptr %3, i32 0, i32 13
  %5 = load i32, ptr %4, align 4
  ret i32 %5
}

; Function Attrs: mustprogress nounwind uwtable
define linkonce_odr noundef nonnull align 8 dereferenceable(2384) ptr @_ZNKSt6vectorI13gmx_moltype_tSaIS0_EEixEm(ptr noundef nonnull align 8 dereferenceable(24) %0, i64 noundef %1) #1 comdat align 2 {
  %3 = alloca ptr, align 8
  %4 = alloca i64, align 8
  store ptr %0, ptr %3, align 8
  store i64 %1, ptr %4, align 8
  %5 = load ptr, ptr %3, align 8
  %6 = getelementptr inbounds %"struct.std::_Vector_base.11", ptr %5, i32 0, i32 0
  %7 = getelementptr inbounds %"struct.std::_Vector_base<gmx_moltype_t, std::allocator<gmx_moltype_t>>::_Vector_impl_data", ptr %6, i32 0, i32 0
  %8 = load ptr, ptr %7, align 8
  %9 = load i64, ptr %4, align 8
  %10 = getelementptr inbounds %struct.gmx_moltype_t, ptr %8, i64 %9
  ret ptr %10
}

; Function Attrs: mustprogress nounwind uwtable
define linkonce_odr noundef nonnull align 8 dereferenceable(56) ptr @_ZNKSt6vectorI14gmx_molblock_tSaIS0_EEixEm(ptr noundef nonnull align 8 dereferenceable(24) %0, i64 noundef %1) #1 comdat align 2 {
  %3 = alloca ptr, align 8
  %4 = alloca i64, align 8
  store ptr %0, ptr %3, align 8
  store i64 %1, ptr %4, align 8
  %5 = load ptr, ptr %3, align 8
  %6 = getelementptr inbounds %"struct.std::_Vector_base.16", ptr %5, i32 0, i32 0
  %7 = getelementptr inbounds %"struct.std::_Vector_base<gmx_molblock_t, std::allocator<gmx_molblock_t>>::_Vector_impl_data", ptr %6, i32 0, i32 0
  %8 = load ptr, ptr %7, align 8
  %9 = load i64, ptr %4, align 8
  %10 = getelementptr inbounds %struct.gmx_molblock_t, ptr %8, i64 %9
  ret ptr %10
}

; Function Attrs: mustprogress uwtable
define void @_ZN12AtomIteratorC2ERK10gmx_mtop_ti(ptr noundef nonnull align 8 dereferenceable(40) %0, ptr noundef nonnull align 8 dereferenceable(768) %1, i32 noundef %2) unnamed_addr #0 align 2 {
  %4 = alloca ptr, align 8
  %5 = alloca ptr, align 8
  %6 = alloca i32, align 4
  store ptr %0, ptr %4, align 8
  store ptr %1, ptr %5, align 8
  store i32 %2, ptr %6, align 4
  %7 = load ptr, ptr %4, align 8
  %8 = getelementptr inbounds %class.AtomIterator, ptr %7, i32 0, i32 0
  %9 = load ptr, ptr %5, align 8
  store ptr %9, ptr %8, align 8
  %10 = getelementptr inbounds %class.AtomIterator, ptr %7, i32 0, i32 1
  store i64 0, ptr %10, align 8
  %11 = getelementptr inbounds %class.AtomIterator, ptr %7, i32 0, i32 2
  %12 = load ptr, ptr %5, align 8
  %13 = getelementptr inbounds %struct.gmx_mtop_t, ptr %12, i32 0, i32 2
  %14 = load ptr, ptr %5, align 8
  %15 = getelementptr inbounds %struct.gmx_mtop_t, ptr %14, i32 0, i32 3
  %16 = call noundef nonnull align 8 dereferenceable(56) ptr @_ZNKSt6vectorI14gmx_molblock_tSaIS0_EEixEm(ptr noundef nonnull align 8 dereferenceable(24) %15, i64 noundef 0) #7
  %17 = getelementptr inbounds %struct.gmx_molblock_t, ptr %16, i32 0, i32 0
  %18 = load i32, ptr %17, align 8
  %19 = sext i32 %18 to i64
  %20 = call noundef nonnull align 8 dereferenceable(2384) ptr @_ZNKSt6vectorI13gmx_moltype_tSaIS0_EEixEm(ptr noundef nonnull align 8 dereferenceable(24) %13, i64 noundef %19) #7
  %21 = getelementptr inbounds %struct.gmx_moltype_t, ptr %20, i32 0, i32 1
  store ptr %21, ptr %11, align 8
  %22 = getelementptr inbounds %class.AtomIterator, ptr %7, i32 0, i32 3
  store i32 0, ptr %22, align 8
  %23 = getelementptr inbounds %class.AtomIterator, ptr %7, i32 0, i32 4
  %24 = load ptr, ptr %5, align 8
  %25 = call noundef i32 @_ZNK10gmx_mtop_t25maxResNumberNotRenumberedEv(ptr noundef nonnull align 8 dereferenceable(768) %24)
  store i32 %25, ptr %23, align 4
  %26 = getelementptr inbounds %class.AtomIterator, ptr %7, i32 0, i32 5
  store i32 0, ptr %26, align 8
  %27 = getelementptr inbounds %class.AtomIterator, ptr %7, i32 0, i32 6
  %28 = load i32, ptr %6, align 4
  store i32 %28, ptr %27, align 4
  ret void
}