; Function Attrs: mustprogress nofree norecurse nosync nounwind willreturn memory(read, argmem: readwrite, inaccessiblemem: none) uwtable
define void @_ZN12AtomIteratorC2ERK10gmx_mtop_ti(ptr nocapture noundef nonnull writeonly align 8 dereferenceable(40) %0, ptr noundef nonnull align 8 dereferenceable(768) %1, i32 noundef %2) unnamed_addr #0 align 2 {
  store ptr %1, ptr %0, align 8
  %4 = getelementptr inbounds i8, ptr %0, i64 8
  store i64 0, ptr %4, align 8
  %5 = getelementptr inbounds i8, ptr %0, i64 16
  %6 = getelementptr inbounds i8, ptr %1, i64 112
  %7 = getelementptr inbounds i8, ptr %1, i64 136
  %8 = load ptr, ptr %7, align 8
  %9 = load i32, ptr %8, align 8
  %10 = sext i32 %9 to i64
  %11 = load ptr, ptr %6, align 8
  %12 = getelementptr inbounds %struct.gmx_moltype_t, ptr %11, i64 %10, i32 1
  store ptr %12, ptr %5, align 8
  %13 = getelementptr inbounds i8, ptr %0, i64 24
  store i32 0, ptr %13, align 8
  %14 = getelementptr inbounds i8, ptr %0, i64 28
  %15 = getelementptr inbounds i8, ptr %1, i64 764
  %16 = load i32, ptr %15, align 4
  store i32 %16, ptr %14, align 4
  %17 = getelementptr inbounds i8, ptr %0, i64 32
  store i32 0, ptr %17, align 8
  %18 = getelementptr inbounds i8, ptr %0, i64 36
  store i32 %2, ptr %18, align 4
  ret void
}